; ModuleID = '61/786.c'
source_filename = "61/786.c"
target datalayout = "e-m:e-p270:32:32-p271:32:32-p272:64:64-i64:64-f80:128-n8:16:32:64-S128"
target triple = "x86_64-pc-linux-gnu"

@.str = private unnamed_addr constant [3 x i8] c"%d\00", align 1
@.str.1 = private unnamed_addr constant [4 x i8] c"%d\0A\00", align 1

; Function Attrs: noinline nounwind uwtable
define dso_local i32 @f(i32 %0) #0 {
  %2 = alloca i32, align 4
  %3 = alloca i32, align 4
  store i32 %0, i32* %3, align 4
  %4 = load i32, i32* %3, align 4
  %5 = icmp eq i32 %4, 1
  br i1 %5, label %9, label %6

6:                                                ; preds = %1
  %7 = load i32, i32* %3, align 4
  %8 = icmp eq i32 %7, 2
  br i1 %8, label %9, label %10

9:                                                ; preds = %6, %1
  store i32 1, i32* %2, align 4
  br label %18

10:                                               ; preds = %6
  %11 = load i32, i32* %3, align 4
  %12 = sub nsw i32 %11, 1
  %13 = call i32 @f(i32 %12)
  %14 = load i32, i32* %3, align 4
  %15 = sub nsw i32 %14, 2
  %16 = call i32 @f(i32 %15)
  %17 = add nsw i32 %13, %16
  store i32 %17, i32* %2, align 4
  br label %18

18:                                               ; preds = %10, %9
  %19 = load i32, i32* %2, align 4
  ret i32 %19
}

; Function Attrs: noinline nounwind uwtable
define dso_local i32 @main() #0 {
  %1 = alloca i32, align 4
  %2 = alloca i32, align 4
  store i32 0, i32* %1, align 4
  %3 = call i32 (i8*, ...) @__isoc99_scanf(i8* getelementptr inbounds ([3 x i8], [3 x i8]* @.str, i64 0, i64 0), i32* %2)
  br label %4

4:                                                ; preds = %7, %0
  %5 = call i32 (i8*, ...) @__isoc99_scanf(i8* getelementptr inbounds ([3 x i8], [3 x i8]* @.str, i64 0, i64 0), i32* %2)
  %6 = icmp ne i32 %5, -1
  br i1 %6, label %7, label %11

7:                                                ; preds = %4
  %8 = load i32, i32* %2, align 4
  %9 = call i32 @f(i32 %8)
  %10 = call i32 (i8*, ...) @printf(i8* getelementptr inbounds ([4 x i8], [4 x i8]* @.str.1, i64 0, i64 0), i32 %9)
  br label %4

11:                                               ; preds = %4
  %12 = load i32, i32* %1, align 4
  ret i32 %12
}

declare dso_local i32 @__isoc99_scanf(i8*, ...) #1

declare dso_local i32 @printf(i8*, ...) #1


!llvm.module.flags = !{!0}
!llvm.ident = !{!1}

!0 = !{i32 1, !"wchar_size", i32 4}
!1 = !{!"clang version 10.0.0-4ubuntu1 "}
